target datalayout = "e-m:e-p270:32:32-p271:32:32-p272:64:64-i64:64-i128:128-f80:128-n8:16:32:64-S128"
target triple = "x86_64-pc-linux-gnu"

%struct.Abc_Ntk_t_ = type { i32, i32, ptr, ptr, ptr, ptr, ptr, ptr, ptr, ptr, ptr, ptr, ptr, [11 x i32], i32, i32, i32, i32, ptr, i32, ptr, ptr, i32, i32, i32, double, i32, %struct.Vec_Int_t_, ptr, ptr, ptr, ptr, ptr, float, i32, ptr, ptr, ptr, ptr, ptr, ptr, ptr, ptr, ptr, ptr, ptr, ptr, ptr, ptr, ptr, ptr, ptr, ptr, ptr, ptr, ptr, ptr }
%struct.Vec_Int_t_ = type { i32, i32, ptr }
%struct.Abc_Obj_t_ = type { ptr, ptr, i32, i32, %struct.Vec_Int_t_, %struct.Vec_Int_t_, %union.anon, %union.anon.0 }
%union.anon = type { ptr }
%union.anon.0 = type { ptr }
%struct.Vec_Ptr_t_ = type { i32, i32, ptr }

; Function Attrs: inlinehint nounwind uwtable
define internal ptr @Vec_IntArray(ptr noundef %0) #6 {
  %2 = alloca ptr, align 8
  store ptr %0, ptr %2, align 8, !tbaa !28
  %3 = load ptr, ptr %2, align 8, !tbaa !28
  %4 = getelementptr inbounds nuw %struct.Vec_Int_t_, ptr %3, i32 0, i32 2
  %5 = load ptr, ptr %4, align 8, !tbaa !69
  ret ptr %5
}

; Function Attrs: inlinehint nounwind uwtable
define internal i32 @Vec_IntEntry(ptr noundef %0, i32 noundef %1) #6 {
  %3 = alloca ptr, align 8
  %4 = alloca i32, align 4
  store ptr %0, ptr %3, align 8, !tbaa !28
  store i32 %1, ptr %4, align 4, !tbaa !8
  %5 = load ptr, ptr %3, align 8, !tbaa !28
  %6 = getelementptr inbounds nuw %struct.Vec_Int_t_, ptr %5, i32 0, i32 2
  %7 = load ptr, ptr %6, align 8, !tbaa !69
  %8 = load i32, ptr %4, align 4, !tbaa !8
  %9 = sext i32 %8 to i64
  %10 = getelementptr inbounds i32, ptr %7, i64 %9
  %11 = load i32, ptr %10, align 4, !tbaa !8
  ret i32 %11
}

; Function Attrs: inlinehint nounwind uwtable
define internal i32 @Vec_IntSize(ptr noundef %0) #6 {
  %2 = alloca ptr, align 8
  store ptr %0, ptr %2, align 8, !tbaa !28
  %3 = load ptr, ptr %2, align 8, !tbaa !28
  %4 = getelementptr inbounds nuw %struct.Vec_Int_t_, ptr %3, i32 0, i32 1
  %5 = load i32, ptr %4, align 4, !tbaa !67
  ret i32 %5
}

; Function Attrs: inlinehint nounwind uwtable
define internal ptr @Abc_ObjFaninVec(ptr noundef %0) #6 {
  %2 = alloca ptr, align 8
  store ptr %0, ptr %2, align 8, !tbaa !43
  %3 = load ptr, ptr %2, align 8, !tbaa !43
  %4 = getelementptr inbounds nuw %struct.Abc_Obj_t_, ptr %3, i32 0, i32 4
  ret ptr %4
}

; Function Attrs: inlinehint nounwind uwtable
define internal ptr @Vec_PtrEntry(ptr noundef %0, i32 noundef %1) #6 {
  %3 = alloca ptr, align 8
  %4 = alloca i32, align 4
  store ptr %0, ptr %3, align 8, !tbaa !64
  store i32 %1, ptr %4, align 4, !tbaa !8
  %5 = load ptr, ptr %3, align 8, !tbaa !64
  %6 = getelementptr inbounds nuw %struct.Vec_Ptr_t_, ptr %5, i32 0, i32 2
  %7 = load ptr, ptr %6, align 8, !tbaa !93
  %8 = load i32, ptr %4, align 4, !tbaa !8
  %9 = sext i32 %8 to i64
  %10 = getelementptr inbounds ptr, ptr %7, i64 %9
  %11 = load ptr, ptr %10, align 8, !tbaa !94
  ret ptr %11
}

; Function Attrs: nounwind uwtable
define void @Abc_ObjFaninSort(ptr noundef %0) #0 {
  %2 = alloca ptr, align 8
  %3 = alloca ptr, align 8
  %4 = alloca ptr, align 8
  %5 = alloca ptr, align 8
  %6 = alloca i32, align 4
  %7 = alloca i32, align 4
  %8 = alloca i32, align 4
  %9 = alloca i32, align 4
  %10 = alloca i8, align 1
  store ptr %0, ptr %2, align 8, !tbaa !43
  call void @llvm.lifetime.start.p0(i64 8, ptr %3) #10
  %11 = load ptr, ptr %2, align 8, !tbaa !43
  %12 = call ptr @Abc_ObjFaninVec(ptr noundef %11)
  store ptr %12, ptr %3, align 8, !tbaa !28
  call void @llvm.lifetime.start.p0(i64 8, ptr %4) #10
  call void @llvm.lifetime.start.p0(i64 8, ptr %5) #10
  %13 = load ptr, ptr %2, align 8, !tbaa !43
  %14 = getelementptr inbounds nuw %struct.Abc_Obj_t_, ptr %13, i32 0, i32 6
  %15 = load ptr, ptr %14, align 8, !tbaa !12
  store ptr %15, ptr %5, align 8, !tbaa !3
  call void @llvm.lifetime.start.p0(i64 4, ptr %6) #10
  call void @llvm.lifetime.start.p0(i64 4, ptr %7) #10
  call void @llvm.lifetime.start.p0(i64 4, ptr %8) #10
  %16 = load ptr, ptr %5, align 8, !tbaa !3
  %17 = call i32 @Abc_SopGetVarNum(ptr noundef %16)
  store i32 %17, ptr %8, align 4, !tbaa !8
  store i32 0, ptr %6, align 4, !tbaa !8
  br label %18

18:                                               ; preds = %100, %1
  %19 = load i32, ptr %6, align 4, !tbaa !8
  %20 = load ptr, ptr %3, align 8, !tbaa !28
  %21 = call i32 @Vec_IntSize(ptr noundef %20)
  %22 = icmp slt i32 %19, %21
  br i1 %22, label %23, label %103

23:                                               ; preds = %18
  %24 = load i32, ptr %6, align 4, !tbaa !8
  %25 = add nsw i32 %24, 1
  store i32 %25, ptr %7, align 4, !tbaa !8
  br label %26

26:                                               ; preds = %96, %23
  %27 = load i32, ptr %7, align 4, !tbaa !8
  %28 = load ptr, ptr %3, align 8, !tbaa !28
  %29 = call i32 @Vec_IntSize(ptr noundef %28)
  %30 = icmp slt i32 %27, %29
  br i1 %30, label %31, label %99

31:                                               ; preds = %26
  %32 = load ptr, ptr %3, align 8, !tbaa !28
  %33 = load i32, ptr %6, align 4, !tbaa !8
  %34 = call i32 @Vec_IntEntry(ptr noundef %32, i32 noundef %33)
  %35 = load ptr, ptr %3, align 8, !tbaa !28
  %36 = load i32, ptr %7, align 4, !tbaa !8
  %37 = call i32 @Vec_IntEntry(ptr noundef %35, i32 noundef %36)
  %38 = icmp slt i32 %34, %37
  br i1 %38, label %39, label %40

39:                                               ; preds = %31
  br label %96

40:                                               ; preds = %31
  call void @llvm.lifetime.start.p0(i64 4, ptr %9) #10
  %41 = load ptr, ptr %3, align 8, !tbaa !28
  %42 = call ptr @Vec_IntArray(ptr noundef %41)
  %43 = load i32, ptr %6, align 4, !tbaa !8
  %44 = sext i32 %43 to i64
  %45 = getelementptr inbounds i32, ptr %42, i64 %44
  %46 = load i32, ptr %45, align 4, !tbaa !8
  store i32 %46, ptr %9, align 4, !tbaa !8
  %47 = load ptr, ptr %3, align 8, !tbaa !28
  %48 = call ptr @Vec_IntArray(ptr noundef %47)
  %49 = load i32, ptr %7, align 4, !tbaa !8
  %50 = sext i32 %49 to i64
  %51 = getelementptr inbounds i32, ptr %48, i64 %50
  %52 = load i32, ptr %51, align 4, !tbaa !8
  %53 = load ptr, ptr %3, align 8, !tbaa !28
  %54 = call ptr @Vec_IntArray(ptr noundef %53)
  %55 = load i32, ptr %6, align 4, !tbaa !8
  %56 = sext i32 %55 to i64
  %57 = getelementptr inbounds i32, ptr %54, i64 %56
  store i32 %52, ptr %57, align 4, !tbaa !8
  %58 = load i32, ptr %9, align 4, !tbaa !8
  %59 = load ptr, ptr %3, align 8, !tbaa !28
  %60 = call ptr @Vec_IntArray(ptr noundef %59)
  %61 = load i32, ptr %7, align 4, !tbaa !8
  %62 = sext i32 %61 to i64
  %63 = getelementptr inbounds i32, ptr %60, i64 %62
  store i32 %58, ptr %63, align 4, !tbaa !8
  call void @llvm.lifetime.end.p0(i64 4, ptr %9) #10
  %64 = load ptr, ptr %5, align 8, !tbaa !3
  store ptr %64, ptr %4, align 8, !tbaa !3
  br label %65

65:                                               ; preds = %89, %40
  %66 = load ptr, ptr %4, align 8, !tbaa !3
  %67 = load i8, ptr %66, align 1, !tbaa !12
  %68 = icmp ne i8 %67, 0
  br i1 %68, label %69, label %95

69:                                               ; preds = %65
  call void @llvm.lifetime.start.p0(i64 1, ptr %10) #10
  %70 = load ptr, ptr %4, align 8, !tbaa !3
  %71 = load i32, ptr %6, align 4, !tbaa !8
  %72 = sext i32 %71 to i64
  %73 = getelementptr inbounds i8, ptr %70, i64 %72
  %74 = load i8, ptr %73, align 1, !tbaa !12
  store i8 %74, ptr %10, align 1, !tbaa !12
  %75 = load ptr, ptr %4, align 8, !tbaa !3
  %76 = load i32, ptr %7, align 4, !tbaa !8
  %77 = sext i32 %76 to i64
  %78 = getelementptr inbounds i8, ptr %75, i64 %77
  %79 = load i8, ptr %78, align 1, !tbaa !12
  %80 = load ptr, ptr %4, align 8, !tbaa !3
  %81 = load i32, ptr %6, align 4, !tbaa !8
  %82 = sext i32 %81 to i64
  %83 = getelementptr inbounds i8, ptr %80, i64 %82
  store i8 %79, ptr %83, align 1, !tbaa !12
  %84 = load i8, ptr %10, align 1, !tbaa !12
  %85 = load ptr, ptr %4, align 8, !tbaa !3
  %86 = load i32, ptr %7, align 4, !tbaa !8
  %87 = sext i32 %86 to i64
  %88 = getelementptr inbounds i8, ptr %85, i64 %87
  store i8 %84, ptr %88, align 1, !tbaa !12
  call void @llvm.lifetime.end.p0(i64 1, ptr %10) #10
  br label %89

89:                                               ; preds = %69
  %90 = load i32, ptr %8, align 4, !tbaa !8
  %91 = add nsw i32 %90, 3
  %92 = load ptr, ptr %4, align 8, !tbaa !3
  %93 = sext i32 %91 to i64
  %94 = getelementptr inbounds i8, ptr %92, i64 %93
  store ptr %94, ptr %4, align 8, !tbaa !3
  br label %65, !llvm.loop !159

95:                                               ; preds = %65
  br label %96

96:                                               ; preds = %95, %39
  %97 = load i32, ptr %7, align 4, !tbaa !8
  %98 = add nsw i32 %97, 1
  store i32 %98, ptr %7, align 4, !tbaa !8
  br label %26, !llvm.loop !160

99:                                               ; preds = %26
  br label %100

100:                                              ; preds = %99
  %101 = load i32, ptr %6, align 4, !tbaa !8
  %102 = add nsw i32 %101, 1
  store i32 %102, ptr %6, align 4, !tbaa !8
  br label %18, !llvm.loop !161

103:                                              ; preds = %18
  call void @llvm.lifetime.end.p0(i64 4, ptr %8) #10
  call void @llvm.lifetime.end.p0(i64 4, ptr %7) #10
  call void @llvm.lifetime.end.p0(i64 4, ptr %6) #10
  call void @llvm.lifetime.end.p0(i64 8, ptr %5) #10
  call void @llvm.lifetime.end.p0(i64 8, ptr %4) #10
  call void @llvm.lifetime.end.p0(i64 8, ptr %3) #10
  ret void
}

; Function Attrs: inlinehint nounwind uwtable
define internal i32 @Abc_ObjIsNode(ptr noundef %0) #6 {
  %2 = alloca ptr, align 8
  store ptr %0, ptr %2, align 8, !tbaa !43
  %3 = load ptr, ptr %2, align 8, !tbaa !43
  %4 = getelementptr inbounds nuw %struct.Abc_Obj_t_, ptr %3, i32 0, i32 3
  %5 = load i32, ptr %4, align 4
  %6 = and i32 %5, 15
  %7 = icmp eq i32 %6, 7
  %8 = zext i1 %7 to i32
  ret i32 %8
}

; Function Attrs: inlinehint nounwind uwtable
define internal ptr @Abc_NtkObj(ptr noundef %0, i32 noundef %1) #6 {
  %3 = alloca ptr, align 8
  %4 = alloca i32, align 4
  store ptr %0, ptr %3, align 8, !tbaa !26
  store i32 %1, ptr %4, align 4, !tbaa !8
  %5 = load ptr, ptr %3, align 8, !tbaa !26
  %6 = getelementptr inbounds nuw %struct.Abc_Ntk_t_, ptr %5, i32 0, i32 5
  %7 = load ptr, ptr %6, align 8, !tbaa !30
  %8 = load i32, ptr %4, align 4, !tbaa !8
  %9 = call ptr @Vec_PtrEntry(ptr noundef %7, i32 noundef %8)
  ret ptr %9
}

; Function Attrs: inlinehint nounwind uwtable
define internal i32 @Vec_PtrSize(ptr noundef %0) #6 {
  %2 = alloca ptr, align 8
  store ptr %0, ptr %2, align 8, !tbaa !64
  %3 = load ptr, ptr %2, align 8, !tbaa !64
  %4 = getelementptr inbounds nuw %struct.Vec_Ptr_t_, ptr %3, i32 0, i32 1
  %5 = load i32, ptr %4, align 4, !tbaa !65
  ret i32 %5
}

; Function Attrs: nounwind uwtable
define void @Abc_NtkFaninSort(ptr noundef %0) #0 {
  %2 = alloca ptr, align 8
  %3 = alloca ptr, align 8
  %4 = alloca i32, align 4
  store ptr %0, ptr %2, align 8, !tbaa !26
  call void @llvm.lifetime.start.p0(i64 8, ptr %3) #10
  call void @llvm.lifetime.start.p0(i64 4, ptr %4) #10
  store i32 0, ptr %4, align 4, !tbaa !8
  br label %5

5:                                                ; preds = %29, %1
  %6 = load i32, ptr %4, align 4, !tbaa !8
  %7 = load ptr, ptr %2, align 8, !tbaa !26
  %8 = getelementptr inbounds nuw %struct.Abc_Ntk_t_, ptr %7, i32 0, i32 5
  %9 = load ptr, ptr %8, align 8, !tbaa !30
  %10 = call i32 @Vec_PtrSize(ptr noundef %9)
  %11 = icmp slt i32 %6, %10
  br i1 %11, label %12, label %16

12:                                               ; preds = %5
  %13 = load ptr, ptr %2, align 8, !tbaa !26
  %14 = load i32, ptr %4, align 4, !tbaa !8
  %15 = call ptr @Abc_NtkObj(ptr noundef %13, i32 noundef %14)
  store ptr %15, ptr %3, align 8, !tbaa !43
  br label %16

16:                                               ; preds = %12, %5
  %17 = phi i1 [ false, %5 ], [ true, %12 ]
  br i1 %17, label %18, label %32

18:                                               ; preds = %16
  %19 = load ptr, ptr %3, align 8, !tbaa !43
  %20 = icmp eq ptr %19, null
  br i1 %20, label %25, label %21

21:                                               ; preds = %18
  %22 = load ptr, ptr %3, align 8, !tbaa !43
  %23 = call i32 @Abc_ObjIsNode(ptr noundef %22)
  %24 = icmp ne i32 %23, 0
  br i1 %24, label %26, label %25

25:                                               ; preds = %21, %18
  br label %28

26:                                               ; preds = %21
  %27 = load ptr, ptr %3, align 8, !tbaa !43
  call void @Abc_ObjFaninSort(ptr noundef %27)
  br label %28

28:                                               ; preds = %26, %25
  br label %29

29:                                               ; preds = %28
  %30 = load i32, ptr %4, align 4, !tbaa !8
  %31 = add nsw i32 %30, 1
  store i32 %31, ptr %4, align 4, !tbaa !8
  br label %5, !llvm.loop !162

32:                                               ; preds = %16
  call void @llvm.lifetime.end.p0(i64 4, ptr %4) #10
  call void @llvm.lifetime.end.p0(i64 8, ptr %3) #10
  ret void
}