; Function Attrs: nounwind uwtable
define void @Abc_NtkFaninSort(ptr noundef readonly captures(none) %0) local_unnamed_addr #2 {
  %2 = getelementptr inbounds nuw i8, ptr %0, i64 32
  %3 = load ptr, ptr %2, align 8, !tbaa !18
  %4 = getelementptr i8, ptr %3, i64 4
  %.val10 = load i32, ptr %4, align 4, !tbaa !35
  %5 = icmp sgt i32 %.val10, 0
  br i1 %5, label %.lr.ph, label %.critedge

.lr.ph:                                           ; preds = %1, %Abc_ObjFaninSort.exit
  %indvars.iv = phi i64 [ %indvars.iv.next, %Abc_ObjFaninSort.exit ], [ 0, %1 ]
  %6 = phi ptr [ %42, %Abc_ObjFaninSort.exit ], [ %3, %1 ]
  %7 = getelementptr i8, ptr %6, i64 8
  %.val8.val = load ptr, ptr %7, align 8, !tbaa !37
  %8 = getelementptr inbounds nuw ptr, ptr %.val8.val, i64 %indvars.iv
  %9 = load ptr, ptr %8, align 8, !tbaa !38
  %10 = icmp eq ptr %9, null
  br i1 %10, label %Abc_ObjFaninSort.exit, label %11

11:                                               ; preds = %.lr.ph
  %12 = getelementptr i8, ptr %9, i64 20
  %.val9 = load i32, ptr %12, align 4
  %13 = and i32 %.val9, 15
  %.not = icmp eq i32 %13, 7
  br i1 %.not, label %14, label %Abc_ObjFaninSort.exit

14:                                               ; preds = %11
  %15 = getelementptr inbounds nuw i8, ptr %9, i64 56
  %16 = load ptr, ptr %15, align 8, !tbaa !3
  %17 = tail call i32 @Abc_SopGetVarNum(ptr noundef %16) #17
  %18 = getelementptr i8, ptr %9, i64 28
  %.val3750.i = load i32, ptr %18, align 4, !tbaa !40
  %19 = icmp sgt i32 %.val3750.i, 0
  br i1 %19, label %.lr.ph52.i, label %Abc_ObjFaninSort.exit

.lr.ph52.i:                                       ; preds = %14
  %20 = getelementptr i8, ptr %9, i64 32
  %21 = sext i32 %17 to i64
  br label %23

.loopexit44.loopexit.i:                           ; preds = %.loopexit.i
  %.pre.i = sext i32 %.val.i to i64
  br label %.loopexit44.i

.loopexit44.i:                                    ; preds = %23, %.loopexit44.loopexit.i
  %.pre-phi.i = phi i64 [ %.pre.i, %.loopexit44.loopexit.i ], [ %24, %23 ]
  %.val37.i = phi i32 [ %.val.i, %.loopexit44.loopexit.i ], [ %.val3761.i, %23 ]
  %22 = icmp slt i64 %indvars.iv.next57.i, %.pre-phi.i
  %indvars.iv.next.i = add nuw nsw i64 %indvars.iv.i, 1
  br i1 %22, label %23, label %Abc_ObjFaninSort.exit, !llvm.loop !142

23:                                               ; preds = %.loopexit44.i, %.lr.ph52.i
  %.val3761.i = phi i32 [ %.val3750.i, %.lr.ph52.i ], [ %.val37.i, %.loopexit44.i ]
  %indvars.iv56.i = phi i64 [ 0, %.lr.ph52.i ], [ %indvars.iv.next57.i, %.loopexit44.i ]
  %indvars.iv.i = phi i64 [ 1, %.lr.ph52.i ], [ %indvars.iv.next.i, %.loopexit44.i ]
  %indvars.iv.next57.i = add nuw nsw i64 %indvars.iv56.i, 1
  %24 = sext i32 %.val3761.i to i64
  %25 = icmp slt i64 %indvars.iv.next57.i, %24
  br i1 %25, label %.lr.ph49.i, label %.loopexit44.i

.lr.ph49.i:                                       ; preds = %23, %.loopexit.i
  %indvars.iv53.i = phi i64 [ %indvars.iv.next54.i, %.loopexit.i ], [ %indvars.iv.i, %23 ]
  %.val43.i = load ptr, ptr %20, align 8, !tbaa !42
  %26 = getelementptr inbounds nuw i32, ptr %.val43.i, i64 %indvars.iv56.i
  %27 = load i32, ptr %26, align 4, !tbaa !6
  %28 = getelementptr inbounds nuw i32, ptr %.val43.i, i64 %indvars.iv53.i
  %29 = load i32, ptr %28, align 4, !tbaa !6
  %30 = icmp slt i32 %27, %29
  br i1 %30, label %.loopexit.i, label %31

31:                                               ; preds = %.lr.ph49.i
  store i32 %29, ptr %26, align 4, !tbaa !6
  store i32 %27, ptr %28, align 4, !tbaa !6
  %32 = load i8, ptr %16, align 1, !tbaa !3
  %.not45.i = icmp eq i8 %32, 0
  br i1 %.not45.i, label %.loopexit.i, label %.lr.ph.i

.lr.ph.i:                                         ; preds = %31, %.lr.ph.i
  %.046.i = phi ptr [ %38, %.lr.ph.i ], [ %16, %31 ]
  %33 = getelementptr inbounds nuw i8, ptr %.046.i, i64 %indvars.iv56.i
  %34 = load i8, ptr %33, align 1, !tbaa !3
  %35 = getelementptr inbounds nuw i8, ptr %.046.i, i64 %indvars.iv53.i
  %36 = load i8, ptr %35, align 1, !tbaa !3
  store i8 %36, ptr %33, align 1, !tbaa !3
  store i8 %34, ptr %35, align 1, !tbaa !3
  %37 = getelementptr i8, ptr %.046.i, i64 %21
  %38 = getelementptr i8, ptr %37, i64 3
  %39 = load i8, ptr %38, align 1, !tbaa !3
  %.not.i = icmp eq i8 %39, 0
  br i1 %.not.i, label %.loopexit.i, label %.lr.ph.i, !llvm.loop !143

.loopexit.i:                                      ; preds = %.lr.ph.i, %31, %.lr.ph49.i
  %indvars.iv.next54.i = add nuw nsw i64 %indvars.iv53.i, 1
  %.val.i = load i32, ptr %18, align 4, !tbaa !40
  %40 = trunc nuw i64 %indvars.iv.next54.i to i32
  %41 = icmp sgt i32 %.val.i, %40
  br i1 %41, label %.lr.ph49.i, label %.loopexit44.loopexit.i, !llvm.loop !144

Abc_ObjFaninSort.exit:                            ; preds = %.loopexit44.i, %14, %11, %.lr.ph
  %indvars.iv.next = add nuw nsw i64 %indvars.iv, 1
  %42 = load ptr, ptr %2, align 8, !tbaa !18
  %43 = getelementptr i8, ptr %42, i64 4
  %.val = load i32, ptr %43, align 4, !tbaa !35
  %44 = sext i32 %.val to i64
  %45 = icmp slt i64 %indvars.iv.next, %44
  br i1 %45, label %.lr.ph, label %.critedge, !llvm.loop !145

.critedge:                                        ; preds = %Abc_ObjFaninSort.exit, %1
  ret void
}